; Function Attrs: mustprogress uwtable
define void @_ZNK6icu_779NFRuleSet6formatElRNS_13UnicodeStringEiiR10UErrorCode(ptr noundef nonnull readonly align 8 captures(none) dereferenceable(163) %0, i64 noundef %1, ptr noundef nonnull align 8 dereferenceable(64) %2, i32 noundef %3, i32 noundef %4, ptr noundef nonnull align 4 dereferenceable(4) %5) local_unnamed_addr #0 align 2 {
  %7 = icmp sgt i32 %4, 63
  br i1 %7, label %8, label %9

8:                                                ; preds = %6
  store i32 27, ptr %5, align 4, !tbaa !27
  br label %_ZNK6icu_779NFRuleSet14findNormalRuleEl.exit.thread

9:                                                ; preds = %6
  %10 = getelementptr inbounds nuw i8, ptr %0, i64 160
  %11 = load i8, ptr %10, align 8, !tbaa !22
  %.not.i = icmp eq i8 %11, 0
  br i1 %.not.i, label %15, label %12

12:                                               ; preds = %9
  %13 = sitofp i64 %1 to double
  %14 = tail call noundef ptr @_ZNK6icu_779NFRuleSet23findFractionRuleSetRuleEd(ptr noundef nonnull readonly align 8 dereferenceable(163) %0, double noundef %13)
  br label %_ZNK6icu_779NFRuleSet14findNormalRuleEl.exit

15:                                               ; preds = %9
  %16 = icmp slt i64 %1, 0
  br i1 %16, label %17, label %22

17:                                               ; preds = %15
  %18 = getelementptr inbounds nuw i8, ptr %0, i64 88
  %19 = load ptr, ptr %18, align 8, !tbaa !25
  %.not37.i = icmp eq ptr %19, null
  br i1 %.not37.i, label %20, label %_ZNK6icu_779NFRuleSet14findNormalRuleEl.exit.thread14

20:                                               ; preds = %17
  %21 = sub nsw i64 0, %1
  br label %22

22:                                               ; preds = %20, %15
  %.032.i = phi i64 [ %21, %20 ], [ %1, %15 ]
  %23 = getelementptr inbounds nuw i8, ptr %0, i64 72
  %24 = getelementptr inbounds nuw i8, ptr %0, i64 80
  %25 = load i32, ptr %24, align 8, !tbaa !20
  %26 = icmp sgt i32 %25, 0
  br i1 %26, label %.preheader.i, label %53

.preheader.i:                                     ; preds = %22
  %27 = load ptr, ptr %23, align 8, !tbaa !19, !nonnull !40, !noundef !40
  br label %_ZNK6icu_7710NFRuleListixEj.exit.thread.i

_ZNK6icu_7710NFRuleListixEj.exit.thread.i:        ; preds = %_ZNK6icu_7710NFRuleListixEj.exit41.i, %.preheader.i
  %.02666.i = phi i32 [ 0, %.preheader.i ], [ %.228.i, %_ZNK6icu_7710NFRuleListixEj.exit41.i ]
  %.02965.i = phi i32 [ %25, %.preheader.i ], [ %.231.i, %_ZNK6icu_7710NFRuleListixEj.exit41.i ]
  %28 = add nuw nsw i32 %.02965.i, %.02666.i
  %29 = lshr i32 %28, 1
  %30 = zext nneg i32 %29 to i64
  %31 = getelementptr inbounds nuw ptr, ptr %27, i64 %30
  %32 = load ptr, ptr %31, align 8, !tbaa !25
  %33 = load i64, ptr %32, align 8, !tbaa !41
  %.not3948.i = icmp eq i64 %33, %.032.i
  br i1 %.not3948.i, label %_ZNK6icu_779NFRuleSet14findNormalRuleEl.exit.thread14, label %_ZNK6icu_7710NFRuleListixEj.exit41.i

_ZNK6icu_7710NFRuleListixEj.exit41.i:             ; preds = %_ZNK6icu_7710NFRuleListixEj.exit.thread.i
  %34 = icmp sgt i64 %33, %.032.i
  %35 = add nuw nsw i32 %29, 1
  %.231.i = select i1 %34, i32 %29, i32 %.02965.i
  %.228.i = select i1 %34, i32 %.02666.i, i32 %35
  %36 = icmp slt i32 %.228.i, %.231.i
  br i1 %36, label %_ZNK6icu_7710NFRuleListixEj.exit.thread.i, label %37

37:                                               ; preds = %_ZNK6icu_7710NFRuleListixEj.exit41.i
  %38 = icmp eq i32 %.231.i, 0
  br i1 %38, label %_ZNK6icu_779NFRuleSet14findNormalRuleEl.exit.thread, label %_ZNK6icu_7710NFRuleListixEj.exit45.i

_ZNK6icu_7710NFRuleListixEj.exit45.i:             ; preds = %37
  %39 = add nsw i32 %.231.i, -1
  %40 = zext i32 %39 to i64
  %41 = getelementptr inbounds nuw ptr, ptr %27, i64 %40
  %42 = load ptr, ptr %41, align 8, !tbaa !25
  %43 = tail call noundef signext i8 @_ZNK6icu_776NFRule14shouldRollBackEl(ptr noundef nonnull align 8 dereferenceable(112) %42, i64 noundef %.032.i)
  %.not38.i = icmp eq i8 %43, 0
  br i1 %.not38.i, label %_ZNK6icu_779NFRuleSet14findNormalRuleEl.exit.thread14, label %44

44:                                               ; preds = %_ZNK6icu_7710NFRuleListixEj.exit45.i
  %45 = icmp eq i32 %.231.i, 1
  br i1 %45, label %_ZNK6icu_779NFRuleSet14findNormalRuleEl.exit.thread, label %46

46:                                               ; preds = %44
  %47 = load ptr, ptr %23, align 8, !tbaa !19
  %.not.i46.i = icmp eq ptr %47, null
  br i1 %.not.i46.i, label %_ZNK6icu_779NFRuleSet14findNormalRuleEl.exit.thread, label %48

48:                                               ; preds = %46
  %49 = add nsw i32 %.231.i, -2
  %50 = zext i32 %49 to i64
  %51 = getelementptr inbounds nuw ptr, ptr %47, i64 %50
  %52 = load ptr, ptr %51, align 8, !tbaa !25
  br label %_ZNK6icu_779NFRuleSet14findNormalRuleEl.exit

53:                                               ; preds = %22
  %54 = getelementptr inbounds nuw i8, ptr %0, i64 112
  %55 = load ptr, ptr %54, align 8, !tbaa !25
  br label %_ZNK6icu_779NFRuleSet14findNormalRuleEl.exit

_ZNK6icu_779NFRuleSet14findNormalRuleEl.exit:     ; preds = %12, %48, %53
  %.025.i = phi ptr [ %14, %12 ], [ %55, %53 ], [ %52, %48 ]
  %.not = icmp eq ptr %.025.i, null
  br i1 %.not, label %_ZNK6icu_779NFRuleSet14findNormalRuleEl.exit.thread, label %_ZNK6icu_779NFRuleSet14findNormalRuleEl.exit.thread14

_ZNK6icu_779NFRuleSet14findNormalRuleEl.exit.thread14: ; preds = %_ZNK6icu_7710NFRuleListixEj.exit.thread.i, %_ZNK6icu_7710NFRuleListixEj.exit45.i, %17, %_ZNK6icu_779NFRuleSet14findNormalRuleEl.exit
  %.025.i17 = phi ptr [ %.025.i, %_ZNK6icu_779NFRuleSet14findNormalRuleEl.exit ], [ %42, %_ZNK6icu_7710NFRuleListixEj.exit45.i ], [ %19, %17 ], [ %32, %_ZNK6icu_7710NFRuleListixEj.exit.thread.i ]
  %56 = add nsw i32 %4, 1
  tail call void @_ZNK6icu_776NFRule8doFormatElRNS_13UnicodeStringEiiR10UErrorCode(ptr noundef nonnull align 8 dereferenceable(112) %.025.i17, i64 noundef %1, ptr noundef nonnull align 8 dereferenceable(64) %2, i32 noundef %3, i32 noundef %56, ptr noundef nonnull align 4 dereferenceable(4) %5)
  br label %_ZNK6icu_779NFRuleSet14findNormalRuleEl.exit.thread

_ZNK6icu_779NFRuleSet14findNormalRuleEl.exit.thread: ; preds = %46, %44, %37, %_ZNK6icu_779NFRuleSet14findNormalRuleEl.exit, %_ZNK6icu_779NFRuleSet14findNormalRuleEl.exit.thread14, %8
  ret void
}